Certificate:
    Data:
        Version: 3 (0x2)
        Serial Number:
            0f:76:cf:de:7d:5e:65:7a:7d:bd:cd:08:14:91:14:7d
        Signature Algorithm: sha256WithRSAEncryption
        Issuer: CN=ca.securedrop.local
        Validity
            Not Before: Dec 10 20:02:36 2022 GMT
            Not After : Nov 24 20:02:36 2025 GMT
        Subject: CN=securedrop.local
        Subject Public Key Info:
            Public Key Algorithm: rsaEncryption
                RSA Public-Key: (2048 bit)
                Modulus:
                    00:b3:35:d1:18:f1:0b:4d:14:a4:e7:12:e6:6e:fd:
                    a4:31:27:8d:5f:f2:29:0d:57:95:b8:6d:c7:b9:8e:
                    da:5a:05:ea:be:0d:4c:fc:6d:34:47:89:35:14:05:
                    2d:77:12:0b:15:5d:f0:aa:55:f4:e2:fa:7c:b2:42:
                    41:49:b4:58:33:de:a1:96:19:7b:5e:04:79:6d:56:
                    e2:a2:cf:db:5a:75:f9:84:a0:67:d6:8a:f9:25:f5:
                    2d:ee:ab:77:36:3d:3e:5a:40:9a:4d:a7:9e:c9:99:
                    19:23:76:08:ab:33:61:21:0b:7e:66:55:cd:14:ce:
                    42:88:36:c1:41:0d:47:c0:a0:b6:25:04:f0:58:a3:
                    1d:36:3d:e4:d1:7c:40:e2:4d:61:36:b8:11:d1:08:
                    0e:b2:50:1a:e1:0b:3b:2f:b1:0d:97:e5:88:90:18:
                    d7:3a:6f:f8:36:19:a6:9b:fd:47:6c:e7:83:95:8a:
                    61:53:25:7f:5a:ba:85:90:c5:61:8a:42:2a:75:e8:
                    42:a3:1e:55:f4:5a:1b:63:b4:c3:8e:4a:9a:c5:49:
                    13:24:44:76:cc:41:14:fb:c2:aa:7a:86:88:b6:4c:
                    3c:f6:ed:03:17:c7:ba:38:0e:48:a4:1b:fb:0e:bd:
                    65:ab:d3:c9:be:d8:68:4b:60:b9:9c:e3:27:46:89:
                    8f:7b
                Exponent: 65537 (0x10001)
        X509v3 extensions:
            X509v3 Basic Constraints: 
                CA:FALSE
            X509v3 Subject Key Identifier: 
                F6:BA:F9:29:19:1E:D7:D2:EE:EB:A8:74:DB:B1:CC:E9:7C:48:3A:76
            X509v3 Authority Key Identifier: 
                keyid:5E:3B:2F:FB:A0:BB:D2:23:17:69:95:FD:A3:2E:3D:A8:6F:AB:DC:D4
                DirName:/CN=ca.securedrop.local
                serial:10:EC:12:11:88:A6:7D:23:A6:C9:7C:7A:4F:E6:28:6B:31:61:16:22

            X509v3 Extended Key Usage: 
                TLS Web Server Authentication
            X509v3 Key Usage: 
                Digital Signature, Key Encipherment
            X509v3 Subject Alternative Name: 
                DNS:securedrop.local
    Signature Algorithm: sha256WithRSAEncryption
         49:06:c0:95:54:34:09:b0:bf:60:40:ac:d3:96:cd:c8:0a:54:
         97:06:f0:60:69:c2:ea:f6:e0:25:41:f9:bf:75:1c:ce:57:ef:
         b6:cb:07:05:49:12:19:96:b1:26:38:29:b4:af:0a:38:8e:9a:
         fb:04:01:12:e5:25:39:73:61:86:09:e5:8d:54:fd:ba:20:36:
         d4:ee:46:44:cd:4f:2a:02:cb:3a:0b:5c:43:c3:d2:55:a6:ef:
         53:22:7f:eb:6f:03:c6:0e:87:6b:ed:71:f6:b2:40:64:cb:f3:
         f9:91:85:b5:1e:94:34:26:08:36:9d:a6:09:5f:81:f9:d5:ff:
         21:2a:17:3a:d1:04:aa:fa:85:2d:c6:8f:ea:39:b9:14:4f:db:
         f2:dc:7a:56:1f:89:49:e7:22:56:d0:ec:88:3e:ab:dc:31:d1:
         1c:56:a5:4c:f7:e5:01:d2:75:ff:a6:43:af:64:a5:07:31:e2:
         ac:91:cc:76:c5:cd:67:a1:ee:2c:d3:8e:fb:eb:dd:c3:f4:07:
         3e:6e:27:d6:99:73:41:66:cb:b3:c0:a2:f6:da:bc:90:3a:ab:
         bf:85:86:2a:8f:84:b1:f5:70:24:d4:8c:a2:e9:ed:89:22:21:
         65:ee:a7:93:9d:1b:37:81:3e:e3:ac:81:ab:0c:03:c6:ae:f6:
         da:24:0f:22
-----BEGIN CERTIFICATE-----
MIIDizCCAnOgAwIBAgIQD3bP3n1eZXp9vc0IFJEUfTANBgkqhkiG9w0BAQsFADAe
MRwwGgYDVQQDDBNjYS5zZWN1cmVkcm9wLmxvY2FsMB4XDTIyMTIxMDIwMDIzNloX
DTI1MTEyNDIwMDIzNlowGzEZMBcGA1UEAwwQc2VjdXJlZHJvcC5sb2NhbDCCASIw
DQYJKoZIhvcNAQEBBQADggEPADCCAQoCggEBALM10RjxC00UpOcS5m79pDEnjV/y
KQ1Xlbhtx7mO2loF6r4NTPxtNEeJNRQFLXcSCxVd8KpV9OL6fLJCQUm0WDPeoZYZ
e14EeW1W4qLP21p1+YSgZ9aK+SX1Le6rdzY9PlpAmk2nnsmZGSN2CKszYSELfmZV
zRTOQog2wUENR8CgtiUE8FijHTY95NF8QOJNYTa4EdEIDrJQGuELOy+xDZfliJAY
1zpv+DYZppv9R2zng5WKYVMlf1q6hZDFYYpCKnXoQqMeVfRaG2O0w45KmsVJEyRE
dsxBFPvCqnqGiLZMPPbtAxfHujgOSKQb+w69ZavTyb7YaEtguZzjJ0aJj3sCAwEA
AaOBxzCBxDAJBgNVHRMEAjAAMB0GA1UdDgQWBBT2uvkpGR7X0u7rqHTbsczpfEg6
djBZBgNVHSMEUjBQgBReOy/7oLvSIxdplf2jLj2ob6vc1KEipCAwHjEcMBoGA1UE
AwwTY2Euc2VjdXJlZHJvcC5sb2NhbIIUEOwSEYimfSOmyXx6T+YoazFhFiIwEwYD
VR0lBAwwCgYIKwYBBQUHAwEwCwYDVR0PBAQDAgWgMBsGA1UdEQQUMBKCEHNlY3Vy
ZWRyb3AubG9jYWwwDQYJKoZIhvcNAQELBQADggEBAEkGwJVUNAmwv2BArNOWzcgK
VJcG8GBpwur24CVB+b91HM5X77bLBwVJEhmWsSY4KbSvCjiOmvsEARLlJTlzYYYJ
5Y1U/bogNtTuRkTNTyoCyzoLXEPD0lWm71Mif+tvA8YOh2vtcfayQGTL8/mRhbUe
lDQmCDadpglfgfnV/yEqFzrRBKr6hS3Gj+o5uRRP2/LcelYfiUnnIlbQ7Ig+q9wx
0RxWpUz35QHSdf+mQ69kpQcx4qyRzHbFzWeh7izTjvvr3cP0Bz5uJ9aZc0Fmy7PA
ovbavJA6q7+FhiqPhLH1cCTUjKLp7YkiIWXup5OdGzeBPuOsgasMA8au9tokDyI=
-----END CERTIFICATE-----
